; Function Attrs: mustprogress nofree norecurse nosync nounwind memory(argmem: readwrite) uwtable
define internal fastcc void @_ZN4ncnnL12cubic_coeffsEiiPiPfi(i32 noundef %0, i32 noundef %1, ptr noundef writeonly captures(none) %2, ptr noundef captures(none) %3, i32 noundef %4) unnamed_addr #14 {
  %6 = sitofp i32 %0 to double
  %7 = sitofp i32 %1 to double
  %8 = fdiv fast double %6, %7
  %.not = icmp eq i32 %4, 0
  br i1 %.not, label %15, label %9

9:                                                ; preds = %5
  %10 = add nsw i32 %0, -1
  %11 = sitofp i32 %10 to double
  %12 = add nsw i32 %1, -1
  %13 = sitofp i32 %12 to double
  %14 = fdiv fast double %11, %13
  br label %15

15:                                               ; preds = %9, %5
  %.087 = phi nsz double [ %14, %9 ], [ %8, %5 ]
  %16 = icmp sgt i32 %1, 0
  br i1 %16, label %.lr.ph, label %._crit_edge

.lr.ph:                                           ; preds = %15
  %17 = add nsw i32 %0, -2
  %18 = add nsw i32 %0, -1
  %19 = add nsw i32 %0, -3
  %wide.trip.count = zext nneg i32 %1 to i64
  br label %20

._crit_edge:                                      ; preds = %101, %15
  ret void

20:                                               ; preds = %.lr.ph, %101
  %indvars.iv = phi i64 [ 0, %.lr.ph ], [ %indvars.iv.next, %101 ]
  %21 = trunc nuw nsw i64 %indvars.iv to i32
  %22 = uitofp nneg i32 %21 to double
  %23 = fadd fast double %22, 5.000000e-01
  %24 = fmul fast double %23, %.087
  %25 = fadd fast double %24, -5.000000e-01
  %26 = fmul fast double %.087, %22
  %spec.select = select i1 %.not, double %25, double %26
  %.085 = fptrunc double %spec.select to float
  %27 = tail call fast noundef float @llvm.floor.f32(float %.085)
  %28 = fptosi float %27 to i32
  %29 = sitofp i32 %28 to float
  %30 = fsub fast float %.085, %29
  %31 = shl nsw i64 %indvars.iv, 2
  %32 = getelementptr inbounds nuw float, ptr %3, i64 %31
  %33 = fadd fast float %30, 1.000000e+00
  %34 = fsub fast float 1.000000e+00, %30
  %35 = fmul fast float %33, %33
  %36 = fmul fast float %33, 7.500000e-01
  %37 = fmul fast float %33, 6.000000e+00
  %38 = fsub fast float 3.750000e+00, %36
  %reass.mul.i = fmul fast float %35, %38
  %39 = fsub fast float 3.000000e+00, %37
  %40 = fadd fast float %reass.mul.i, %39
  store float %40, ptr %32, align 4, !tbaa !49
  %41 = fmul fast float %30, %30
  %42 = fmul fast float %30, 1.250000e+00
  %43 = fadd fast float %42, -2.250000e+00
  %44 = fmul fast float %41, %43
  %45 = fadd fast float %44, 1.000000e+00
  %46 = getelementptr inbounds nuw i8, ptr %32, i64 4
  store float %45, ptr %46, align 4, !tbaa !49
  %47 = fmul fast float %34, %34
  %48 = fmul fast float %34, 1.250000e+00
  %49 = fadd fast float %48, -2.250000e+00
  %50 = fmul fast float %47, %49
  %51 = fadd fast float %50, 1.000000e+00
  %52 = getelementptr inbounds nuw i8, ptr %32, i64 8
  store float %51, ptr %52, align 4, !tbaa !49
  %53 = fadd fast float %50, %45
  %54 = fadd fast float %53, %40
  %55 = fneg fast float %54
  %56 = getelementptr inbounds nuw i8, ptr %32, i64 12
  store float %55, ptr %56, align 4, !tbaa !49
  %57 = icmp slt i32 %28, 0
  br i1 %57, label %.thread, label %66

.thread:                                          ; preds = %20
  %58 = or disjoint i64 %31, 3
  %59 = getelementptr inbounds nuw float, ptr %3, i64 %58
  %60 = load float, ptr %59, align 4, !tbaa !49
  %61 = fsub fast float 1.000000e+00, %60
  store float %61, ptr %32, align 4, !tbaa !49
  %62 = or disjoint i64 %31, 1
  %63 = getelementptr inbounds nuw float, ptr %3, i64 %62
  store float %60, ptr %63, align 4, !tbaa !49
  %64 = or disjoint i64 %31, 2
  %65 = getelementptr inbounds nuw float, ptr %3, i64 %64
  store float 0.000000e+00, ptr %65, align 4, !tbaa !49
  store float 0.000000e+00, ptr %59, align 4, !tbaa !49
  br label %79

66:                                               ; preds = %20
  %67 = icmp eq i32 %28, 0
  br i1 %67, label %68, label %79

68:                                               ; preds = %66
  %69 = or disjoint i64 %31, 1
  %70 = getelementptr inbounds nuw float, ptr %3, i64 %69
  %71 = load float, ptr %70, align 4, !tbaa !49
  %72 = fadd fast float %71, %40
  store float %72, ptr %32, align 4, !tbaa !49
  %73 = or disjoint i64 %31, 2
  %74 = getelementptr inbounds nuw float, ptr %3, i64 %73
  %75 = load float, ptr %74, align 4, !tbaa !49
  store float %75, ptr %70, align 4, !tbaa !49
  %76 = or disjoint i64 %31, 3
  %77 = getelementptr inbounds nuw float, ptr %3, i64 %76
  %78 = load float, ptr %77, align 4, !tbaa !49
  store float %78, ptr %74, align 4, !tbaa !49
  store float 0.000000e+00, ptr %77, align 4, !tbaa !49
  br label %79

79:                                               ; preds = %.thread, %68, %66
  %80 = phi float [ %72, %68 ], [ %40, %66 ], [ %61, %.thread ]
  %.1 = phi i32 [ 1, %68 ], [ %28, %66 ], [ 1, %.thread ]
  %81 = icmp eq i32 %.1, %17
  br i1 %81, label %.thread91, label %92

.thread91:                                        ; preds = %79
  %82 = or disjoint i64 %31, 2
  %83 = getelementptr inbounds nuw float, ptr %3, i64 %82
  %84 = load float, ptr %83, align 4, !tbaa !49
  %85 = or disjoint i64 %31, 3
  %86 = getelementptr inbounds nuw float, ptr %3, i64 %85
  %87 = load float, ptr %86, align 4, !tbaa !49
  %88 = fadd fast float %87, %84
  store float %88, ptr %86, align 4, !tbaa !49
  %89 = or disjoint i64 %31, 1
  %90 = getelementptr inbounds nuw float, ptr %3, i64 %89
  %91 = load float, ptr %90, align 4, !tbaa !49
  store float %91, ptr %83, align 4, !tbaa !49
  store float %80, ptr %90, align 4, !tbaa !49
  br label %.sink.split

92:                                               ; preds = %79
  %.not89 = icmp slt i32 %.1, %18
  br i1 %.not89, label %101, label %93

93:                                               ; preds = %92
  %94 = fsub fast float 1.000000e+00, %80
  %95 = or disjoint i64 %31, 3
  %96 = getelementptr inbounds nuw float, ptr %3, i64 %95
  store float %94, ptr %96, align 4, !tbaa !49
  %97 = or disjoint i64 %31, 2
  %98 = getelementptr inbounds nuw float, ptr %3, i64 %97
  store float %80, ptr %98, align 4, !tbaa !49
  %99 = or disjoint i64 %31, 1
  %100 = getelementptr inbounds nuw float, ptr %3, i64 %99
  store float 0.000000e+00, ptr %100, align 4, !tbaa !49
  br label %.sink.split

.sink.split:                                      ; preds = %93, %.thread91
  store float 0.000000e+00, ptr %32, align 4, !tbaa !49
  br label %101

101:                                              ; preds = %.sink.split, %92
  %.3 = phi i32 [ %.1, %92 ], [ %19, %.sink.split ]
  %102 = getelementptr inbounds nuw i32, ptr %2, i64 %indvars.iv
  store i32 %.3, ptr %102, align 4, !tbaa !16
  %indvars.iv.next = add nuw nsw i64 %indvars.iv, 1
  %exitcond.not = icmp eq i64 %indvars.iv.next, %wide.trip.count
  br i1 %exitcond.not, label %._crit_edge, label %20, !llvm.loop !79
}